; Function Attrs: mustprogress nofree norecurse nosync nounwind willreturn memory(argmem: readwrite) uwtable
define dso_local void @jq_get_stderr_cb(ptr noundef readonly captures(none) %0, ptr noundef writeonly captures(none) initializes((0, 8)) %1, ptr noundef writeonly captures(none) initializes((0, 8)) %2) local_unnamed_addr #7 {
  %4 = getelementptr inbounds nuw i8, ptr %0, i64 224
  %5 = load ptr, ptr %4, align 8, !tbaa !83
  store ptr %5, ptr %1, align 8, !tbaa !69
  %6 = getelementptr inbounds nuw i8, ptr %0, i64 232
  %7 = load ptr, ptr %6, align 8, !tbaa !84
  store ptr %7, ptr %2, align 8, !tbaa !69
  ret void
}